; Function Attrs: mustprogress nofree norecurse nosync nounwind willreturn memory(argmem: read) uwtable
define noundef zeroext i1 @_ZNK5folly12EventHandler9isPendingEv(ptr noundef nonnull readonly align 8 captures(none) dereferenceable(184) %0) local_unnamed_addr #13 align 2 {
  %2 = getelementptr inbounds nuw i8, ptr %0, i64 24
  %3 = load i16, ptr %2, align 8, !tbaa !30
  %4 = and i16 %3, 8
  %.not = icmp eq i16 %4, 0
  br i1 %.not, label %9, label %5

5:                                                ; preds = %1
  %6 = getelementptr inbounds nuw i8, ptr %0, i64 114
  %7 = load i16, ptr %6, align 2, !tbaa !41
  %8 = and i16 %7, 2
  %.not2 = icmp eq i16 %8, 0
  br i1 %.not2, label %9, label %10

9:                                                ; preds = %5, %1
  br label %10

10:                                               ; preds = %5, %9
  %.0 = phi i1 [ false, %9 ], [ true, %5 ]
  ret i1 %.0
}